target datalayout = "e-m:e-p270:32:32-p271:32:32-p272:64:64-i64:64-i128:128-f80:128-n8:16:32:64-S128"
target triple = "x86_64-pc-linux-gnu"

%struct.AVRational = type { i32, i32 }
%struct.NUTContext = type { ptr, ptr, [256 x %struct.FrameCode], [128 x i8], [128 x ptr], i64, ptr, ptr, i32, i32, i64, i64, i32, ptr, ptr, i32, i32, i64, ptr, i32, i32, i32 }
%struct.FrameCode = type { i16, i8, i16, i16, i16, i8, i8 }
%struct.AVPacket = type { ptr, i64, i64, ptr, i32, i32, i32, ptr, i32, i64, i64, ptr, ptr, %struct.AVRational }
%struct.StreamContext = type { i32, i32, i64, i32, ptr, i32, i32, i32, ptr }

; Function Attrs: nounwind uwtable
define internal i32 @get_needed_flags(ptr noundef %0, ptr noundef %1, ptr noundef %2, ptr noundef %3) #0 {
  %5 = alloca ptr, align 8
  %6 = alloca ptr, align 8
  %7 = alloca ptr, align 8
  %8 = alloca ptr, align 8
  %9 = alloca i32, align 4
  store ptr %0, ptr %5, align 8, !tbaa !26
  store ptr %1, ptr %6, align 8, !tbaa !86
  store ptr %2, ptr %7, align 8, !tbaa !121
  store ptr %3, ptr %8, align 8, !tbaa !83
  call void @llvm.lifetime.start.p0(i64 4, ptr %9) #12
  store i32 0, ptr %9, align 4, !tbaa !44
  %10 = load ptr, ptr %8, align 8, !tbaa !83
  %11 = getelementptr inbounds nuw %struct.AVPacket, ptr %10, i32 0, i32 6
  %12 = load i32, ptr %11, align 8, !tbaa !87
  %13 = and i32 %12, 1
  %14 = icmp ne i32 %13, 0
  br i1 %14, label %15, label %18

15:                                               ; preds = %4
  %16 = load i32, ptr %9, align 4, !tbaa !44
  %17 = or i32 %16, 1
  store i32 %17, ptr %9, align 4, !tbaa !44
  br label %18

18:                                               ; preds = %15, %4
  %19 = load ptr, ptr %8, align 8, !tbaa !83
  %20 = getelementptr inbounds nuw %struct.AVPacket, ptr %19, i32 0, i32 5
  %21 = load i32, ptr %20, align 4, !tbaa !85
  %22 = load ptr, ptr %7, align 8, !tbaa !121
  %23 = getelementptr inbounds nuw %struct.FrameCode, ptr %22, i32 0, i32 1
  %24 = load i8, ptr %23, align 2, !tbaa !140
  %25 = zext i8 %24 to i32
  %26 = icmp ne i32 %21, %25
  br i1 %26, label %27, label %30

27:                                               ; preds = %18
  %28 = load i32, ptr %9, align 4, !tbaa !44
  %29 = or i32 %28, 16
  store i32 %29, ptr %9, align 4, !tbaa !44
  br label %30

30:                                               ; preds = %27, %18
  %31 = load ptr, ptr %8, align 8, !tbaa !83
  %32 = getelementptr inbounds nuw %struct.AVPacket, ptr %31, i32 0, i32 4
  %33 = load i32, ptr %32, align 8, !tbaa !88
  %34 = load ptr, ptr %7, align 8, !tbaa !121
  %35 = getelementptr inbounds nuw %struct.FrameCode, ptr %34, i32 0, i32 2
  %36 = load i16, ptr %35, align 2, !tbaa !123
  %37 = zext i16 %36 to i32
  %38 = sdiv i32 %33, %37
  %39 = icmp ne i32 %38, 0
  br i1 %39, label %40, label %43

40:                                               ; preds = %30
  %41 = load i32, ptr %9, align 4, !tbaa !44
  %42 = or i32 %41, 32
  store i32 %42, ptr %9, align 4, !tbaa !44
  br label %43

43:                                               ; preds = %40, %30
  %44 = load ptr, ptr %8, align 8, !tbaa !83
  %45 = getelementptr inbounds nuw %struct.AVPacket, ptr %44, i32 0, i32 1
  %46 = load i64, ptr %45, align 8, !tbaa !90
  %47 = load ptr, ptr %6, align 8, !tbaa !86
  %48 = getelementptr inbounds nuw %struct.StreamContext, ptr %47, i32 0, i32 2
  %49 = load i64, ptr %48, align 8, !tbaa !120
  %50 = sub nsw i64 %46, %49
  %51 = load ptr, ptr %7, align 8, !tbaa !121
  %52 = getelementptr inbounds nuw %struct.FrameCode, ptr %51, i32 0, i32 4
  %53 = load i16, ptr %52, align 2, !tbaa !137
  %54 = sext i16 %53 to i64
  %55 = icmp ne i64 %50, %54
  br i1 %55, label %56, label %59

56:                                               ; preds = %43
  %57 = load i32, ptr %9, align 4, !tbaa !44
  %58 = or i32 %57, 8
  store i32 %58, ptr %9, align 4, !tbaa !44
  br label %59

59:                                               ; preds = %56, %43
  %60 = load ptr, ptr %8, align 8, !tbaa !83
  %61 = getelementptr inbounds nuw %struct.AVPacket, ptr %60, i32 0, i32 8
  %62 = load i32, ptr %61, align 8, !tbaa !91
  %63 = icmp ne i32 %62, 0
  br i1 %63, label %64, label %72

64:                                               ; preds = %59
  %65 = load ptr, ptr %5, align 8, !tbaa !26
  %66 = getelementptr inbounds nuw %struct.NUTContext, ptr %65, i32 0, i32 20
  %67 = load i32, ptr %66, align 4, !tbaa !37
  %68 = icmp sgt i32 %67, 3
  br i1 %68, label %69, label %72

69:                                               ; preds = %64
  %70 = load i32, ptr %9, align 4, !tbaa !44
  %71 = or i32 %70, 256
  store i32 %71, ptr %9, align 4, !tbaa !44
  br label %72

72:                                               ; preds = %69, %64, %59
  %73 = load ptr, ptr %8, align 8, !tbaa !83
  %74 = getelementptr inbounds nuw %struct.AVPacket, ptr %73, i32 0, i32 4
  %75 = load i32, ptr %74, align 8, !tbaa !88
  %76 = load ptr, ptr %5, align 8, !tbaa !26
  %77 = getelementptr inbounds nuw %struct.NUTContext, ptr %76, i32 0, i32 8
  %78 = load i32, ptr %77, align 8, !tbaa !78
  %79 = mul i32 2, %78
  %80 = icmp ugt i32 %75, %79
  br i1 %80, label %81, label %84

81:                                               ; preds = %72
  %82 = load i32, ptr %9, align 4, !tbaa !44
  %83 = or i32 %82, 64
  store i32 %83, ptr %9, align 4, !tbaa !44
  br label %84

84:                                               ; preds = %81, %72
  %85 = load ptr, ptr %8, align 8, !tbaa !83
  %86 = getelementptr inbounds nuw %struct.AVPacket, ptr %85, i32 0, i32 1
  %87 = load i64, ptr %86, align 8, !tbaa !90
  %88 = load ptr, ptr %6, align 8, !tbaa !86
  %89 = getelementptr inbounds nuw %struct.StreamContext, ptr %88, i32 0, i32 2
  %90 = load i64, ptr %89, align 8, !tbaa !120
  %91 = sub nsw i64 %87, %90
  %92 = icmp sge i64 %91, 0
  br i1 %92, label %93, label %101

93:                                               ; preds = %84
  %94 = load ptr, ptr %8, align 8, !tbaa !83
  %95 = getelementptr inbounds nuw %struct.AVPacket, ptr %94, i32 0, i32 1
  %96 = load i64, ptr %95, align 8, !tbaa !90
  %97 = load ptr, ptr %6, align 8, !tbaa !86
  %98 = getelementptr inbounds nuw %struct.StreamContext, ptr %97, i32 0, i32 2
  %99 = load i64, ptr %98, align 8, !tbaa !120
  %100 = sub nsw i64 %96, %99
  br label %110

101:                                              ; preds = %84
  %102 = load ptr, ptr %8, align 8, !tbaa !83
  %103 = getelementptr inbounds nuw %struct.AVPacket, ptr %102, i32 0, i32 1
  %104 = load i64, ptr %103, align 8, !tbaa !90
  %105 = load ptr, ptr %6, align 8, !tbaa !86
  %106 = getelementptr inbounds nuw %struct.StreamContext, ptr %105, i32 0, i32 2
  %107 = load i64, ptr %106, align 8, !tbaa !120
  %108 = sub nsw i64 %104, %107
  %109 = sub nsw i64 0, %108
  br label %110

110:                                              ; preds = %101, %93
  %111 = phi i64 [ %100, %93 ], [ %109, %101 ]
  %112 = load ptr, ptr %6, align 8, !tbaa !86
  %113 = getelementptr inbounds nuw %struct.StreamContext, ptr %112, i32 0, i32 6
  %114 = load i32, ptr %113, align 4, !tbaa !69
  %115 = sext i32 %114 to i64
  %116 = icmp sgt i64 %111, %115
  br i1 %116, label %117, label %120

117:                                              ; preds = %110
  %118 = load i32, ptr %9, align 4, !tbaa !44
  %119 = or i32 %118, 64
  store i32 %119, ptr %9, align 4, !tbaa !44
  br label %120

120:                                              ; preds = %117, %110
  %121 = load ptr, ptr %7, align 8, !tbaa !121
  %122 = getelementptr inbounds nuw %struct.FrameCode, ptr %121, i32 0, i32 6
  %123 = load i8, ptr %122, align 1, !tbaa !126
  %124 = icmp ne i8 %123, 0
  br i1 %124, label %125, label %171

125:                                              ; preds = %120
  %126 = load ptr, ptr %8, align 8, !tbaa !83
  %127 = getelementptr inbounds nuw %struct.AVPacket, ptr %126, i32 0, i32 4
  %128 = load i32, ptr %127, align 8, !tbaa !88
  %129 = load ptr, ptr %5, align 8, !tbaa !26
  %130 = getelementptr inbounds nuw %struct.NUTContext, ptr %129, i32 0, i32 3
  %131 = load ptr, ptr %7, align 8, !tbaa !121
  %132 = getelementptr inbounds nuw %struct.FrameCode, ptr %131, i32 0, i32 6
  %133 = load i8, ptr %132, align 1, !tbaa !126
  %134 = zext i8 %133 to i64
  %135 = getelementptr inbounds nuw [128 x i8], ptr %130, i64 0, i64 %134
  %136 = load i8, ptr %135, align 1, !tbaa !125
  %137 = zext i8 %136 to i32
  %138 = icmp slt i32 %128, %137
  br i1 %138, label %167, label %139

139:                                              ; preds = %125
  %140 = load ptr, ptr %8, align 8, !tbaa !83
  %141 = getelementptr inbounds nuw %struct.AVPacket, ptr %140, i32 0, i32 4
  %142 = load i32, ptr %141, align 8, !tbaa !88
  %143 = icmp sgt i32 %142, 4096
  br i1 %143, label %167, label %144

144:                                              ; preds = %139
  %145 = load ptr, ptr %8, align 8, !tbaa !83
  %146 = getelementptr inbounds nuw %struct.AVPacket, ptr %145, i32 0, i32 3
  %147 = load ptr, ptr %146, align 8, !tbaa !128
  %148 = load ptr, ptr %5, align 8, !tbaa !26
  %149 = getelementptr inbounds nuw %struct.NUTContext, ptr %148, i32 0, i32 4
  %150 = load ptr, ptr %7, align 8, !tbaa !121
  %151 = getelementptr inbounds nuw %struct.FrameCode, ptr %150, i32 0, i32 6
  %152 = load i8, ptr %151, align 1, !tbaa !126
  %153 = zext i8 %152 to i64
  %154 = getelementptr inbounds nuw [128 x ptr], ptr %149, i64 0, i64 %153
  %155 = load ptr, ptr %154, align 8, !tbaa !89
  %156 = load ptr, ptr %5, align 8, !tbaa !26
  %157 = getelementptr inbounds nuw %struct.NUTContext, ptr %156, i32 0, i32 3
  %158 = load ptr, ptr %7, align 8, !tbaa !121
  %159 = getelementptr inbounds nuw %struct.FrameCode, ptr %158, i32 0, i32 6
  %160 = load i8, ptr %159, align 1, !tbaa !126
  %161 = zext i8 %160 to i64
  %162 = getelementptr inbounds nuw [128 x i8], ptr %157, i64 0, i64 %161
  %163 = load i8, ptr %162, align 1, !tbaa !125
  %164 = zext i8 %163 to i64
  %165 = call i32 @memcmp(ptr noundef %147, ptr noundef %155, i64 noundef %164) #13
  %166 = icmp ne i32 %165, 0
  br i1 %166, label %167, label %170

167:                                              ; preds = %144, %139, %125
  %168 = load i32, ptr %9, align 4, !tbaa !44
  %169 = or i32 %168, 1024
  store i32 %169, ptr %9, align 4, !tbaa !44
  br label %170

170:                                              ; preds = %167, %144
  br label %171

171:                                              ; preds = %170, %120
  %172 = load i32, ptr %9, align 4, !tbaa !44
  %173 = load ptr, ptr %7, align 8, !tbaa !121
  %174 = getelementptr inbounds nuw %struct.FrameCode, ptr %173, i32 0, i32 0
  %175 = load i16, ptr %174, align 2, !tbaa !79
  %176 = zext i16 %175 to i32
  %177 = and i32 %176, 4096
  %178 = or i32 %172, %177
  call void @llvm.lifetime.end.p0(i64 4, ptr %9) #12
  ret i32 %178
}