; Function Attrs: mustprogress nofree norecurse nounwind willreturn memory(read, inaccessiblemem: none) uwtable
define internal fastcc range(i32 0, 6144) i32 @get_needed_flags(ptr noundef readonly captures(none) %0, ptr noundef readonly captures(none) %1, ptr noundef readonly captures(none) %2, ptr noundef readonly captures(none) %3) unnamed_addr #8 {
  %5 = getelementptr inbounds nuw i8, ptr %3, i64 40
  %6 = load i32, ptr %5, align 8, !tbaa !105
  %7 = and i32 %6, 1
  %8 = getelementptr inbounds nuw i8, ptr %3, i64 36
  %9 = load i32, ptr %8, align 4, !tbaa !103
  %10 = getelementptr inbounds nuw i8, ptr %2, i64 2
  %11 = load i8, ptr %10, align 2, !tbaa !88
  %12 = zext i8 %11 to i32
  %.not42 = icmp eq i32 %9, %12
  %13 = or disjoint i32 %7, 16
  %.1 = select i1 %.not42, i32 %7, i32 %13
  %14 = getelementptr inbounds nuw i8, ptr %3, i64 32
  %15 = load i32, ptr %14, align 8, !tbaa !106
  %16 = getelementptr inbounds nuw i8, ptr %2, i64 4
  %17 = load i16, ptr %16, align 2, !tbaa !84
  %18 = zext i16 %17 to i32
  %19 = sdiv i32 %15, %18
  %.not43 = icmp eq i32 %19, 0
  %20 = or disjoint i32 %.1, 32
  %.2 = select i1 %.not43, i32 %.1, i32 %20
  %21 = getelementptr inbounds nuw i8, ptr %3, i64 8
  %22 = load i64, ptr %21, align 8, !tbaa !107
  %23 = getelementptr inbounds nuw i8, ptr %1, i64 8
  %24 = load i64, ptr %23, align 8, !tbaa !136
  %25 = sub nsw i64 %22, %24
  %26 = getelementptr inbounds nuw i8, ptr %2, i64 8
  %27 = load i16, ptr %26, align 2, !tbaa !85
  %28 = sext i16 %27 to i64
  %.not44 = icmp eq i64 %25, %28
  %29 = or disjoint i32 %.2, 8
  %.3 = select i1 %.not44, i32 %.2, i32 %29
  %30 = getelementptr inbounds nuw i8, ptr %3, i64 56
  %31 = load i32, ptr %30, align 8, !tbaa !108
  %.not45 = icmp eq i32 %31, 0
  br i1 %.not45, label %37, label %32

32:                                               ; preds = %4
  %33 = getelementptr inbounds nuw i8, ptr %0, i64 4340
  %34 = load i32, ptr %33, align 4, !tbaa !33
  %35 = icmp sgt i32 %34, 3
  %36 = or i32 %.3, 256
  %spec.select48 = select i1 %35, i32 %36, i32 %.3
  br label %37

37:                                               ; preds = %32, %4
  %.4 = phi i32 [ %.3, %4 ], [ %spec.select48, %32 ]
  %38 = getelementptr inbounds nuw i8, ptr %0, i64 4264
  %39 = load i32, ptr %38, align 8, !tbaa !76
  %40 = shl i32 %39, 1
  %41 = icmp ugt i32 %15, %40
  %42 = or i32 %.4, 64
  %43 = tail call i64 @llvm.abs.i64(i64 %25, i1 true)
  %44 = getelementptr inbounds nuw i8, ptr %1, i64 36
  %45 = load i32, ptr %44, align 4, !tbaa !67
  %46 = sext i32 %45 to i64
  %47 = icmp sgt i64 %43, %46
  %48 = select i1 %47, i1 true, i1 %41
  %.6 = select i1 %48, i32 %42, i32 %.4
  %49 = getelementptr inbounds nuw i8, ptr %2, i64 11
  %50 = load i8, ptr %49, align 1, !tbaa !90
  %.not46 = icmp eq i8 %50, 0
  br i1 %.not46, label %68, label %51

51:                                               ; preds = %37
  %52 = getelementptr inbounds nuw i8, ptr %0, i64 3088
  %53 = zext i8 %50 to i64
  %54 = getelementptr inbounds nuw [128 x i8], ptr %52, i64 0, i64 %53
  %55 = load i8, ptr %54, align 1, !tbaa !78
  %56 = zext i8 %55 to i32
  %57 = icmp slt i32 %15, %56
  %58 = icmp sgt i32 %15, 4096
  %or.cond = or i1 %58, %57
  br i1 %or.cond, label %66, label %59

59:                                               ; preds = %51
  %60 = getelementptr inbounds nuw i8, ptr %3, i64 24
  %61 = load ptr, ptr %60, align 8, !tbaa !137
  %62 = getelementptr inbounds nuw i8, ptr %0, i64 3216
  %63 = getelementptr inbounds nuw [128 x ptr], ptr %62, i64 0, i64 %53
  %64 = load ptr, ptr %63, align 8, !tbaa !79
  %65 = zext i8 %55 to i64
  %bcmp = tail call i32 @bcmp(ptr %61, ptr %64, i64 %65)
  %.not47 = icmp eq i32 %bcmp, 0
  br i1 %.not47, label %68, label %66

66:                                               ; preds = %59, %51
  %67 = or i32 %.6, 1024
  br label %68

68:                                               ; preds = %59, %66, %37
  %.7 = phi i32 [ %67, %66 ], [ %.6, %59 ], [ %.6, %37 ]
  %69 = load i16, ptr %2, align 2, !tbaa !81
  %70 = and i16 %69, 4096
  %71 = zext nneg i16 %70 to i32
  %72 = or i32 %.7, %71
  ret i32 %72
}